target datalayout = "e-m:e-p270:32:32-p271:32:32-p272:64:64-i64:64-i128:128-f80:128-n8:16:32:64-S128"
target triple = "x86_64-unknown-linux-gnu"

%"class.std::__cxx11::basic_string" = type { %"struct.std::__cxx11::basic_string<char>::_Alloc_hider", i64, %union.anon }
%"struct.std::__cxx11::basic_string<char>::_Alloc_hider" = type { ptr }
%union.anon = type { i64, [8 x i8] }
%"class.Assimp::ZipFile" = type { %"class.Assimp::IOStream", %"class.std::__cxx11::basic_string", i64, i64, %"class.std::unique_ptr" }
%"class.Assimp::IOStream" = type { ptr }
%"class.std::unique_ptr" = type { %"struct.std::__uniq_ptr_data" }
%"struct.std::__uniq_ptr_data" = type { %"class.std::__uniq_ptr_impl" }
%"class.std::__uniq_ptr_impl" = type { %"class.std::tuple" }
%"class.std::tuple" = type { %"struct.std::_Tuple_impl" }
%"struct.std::_Tuple_impl" = type { %"struct.std::_Head_base.4" }
%"struct.std::_Head_base.4" = type { ptr }

; Function Attrs: mustprogress nounwind uwtable
define hidden noundef i32 @_ZN6Assimp7ZipFile4SeekEm8aiOrigin(ptr noundef nonnull align 8 dereferenceable(64) %this, i64 noundef %pOffset, i32 noundef %pOrigin) unnamed_addr #0 align 2 {
entry:
  %retval = alloca i32, align 4
  %this.addr = alloca ptr, align 8
  %pOffset.addr = alloca i64, align 8
  %pOrigin.addr = alloca i32, align 4
  store ptr %this, ptr %this.addr, align 8
  store i64 %pOffset, ptr %pOffset.addr, align 8
  store i32 %pOrigin, ptr %pOrigin.addr, align 4
  %this1 = load ptr, ptr %this.addr, align 8
  %0 = load i32, ptr %pOrigin.addr, align 4
  switch i32 %0, label %sw.default [
    i32 0, label %sw.bb
    i32 1, label %sw.bb2
    i32 2, label %sw.bb10
  ]

sw.bb:                                            ; preds = %entry
  %1 = load i64, ptr %pOffset.addr, align 8
  %m_Size = getelementptr inbounds %"class.Assimp::ZipFile", ptr %this1, i32 0, i32 2
  %2 = load i64, ptr %m_Size, align 8
  %cmp = icmp ugt i64 %1, %2
  br i1 %cmp, label %if.then, label %if.end

if.then:                                          ; preds = %sw.bb
  store i32 -1, ptr %retval, align 4
  br label %return

if.end:                                           ; preds = %sw.bb
  %3 = load i64, ptr %pOffset.addr, align 8
  %m_SeekPtr = getelementptr inbounds %"class.Assimp::ZipFile", ptr %this1, i32 0, i32 3
  store i64 %3, ptr %m_SeekPtr, align 8
  store i32 0, ptr %retval, align 4
  br label %return

sw.bb2:                                           ; preds = %entry
  %4 = load i64, ptr %pOffset.addr, align 8
  %m_SeekPtr3 = getelementptr inbounds %"class.Assimp::ZipFile", ptr %this1, i32 0, i32 3
  %5 = load i64, ptr %m_SeekPtr3, align 8
  %add = add i64 %4, %5
  %m_Size4 = getelementptr inbounds %"class.Assimp::ZipFile", ptr %this1, i32 0, i32 2
  %6 = load i64, ptr %m_Size4, align 8
  %cmp5 = icmp ugt i64 %add, %6
  br i1 %cmp5, label %if.then6, label %if.end7

if.then6:                                         ; preds = %sw.bb2
  store i32 -1, ptr %retval, align 4
  br label %return

if.end7:                                          ; preds = %sw.bb2
  %7 = load i64, ptr %pOffset.addr, align 8
  %m_SeekPtr8 = getelementptr inbounds %"class.Assimp::ZipFile", ptr %this1, i32 0, i32 3
  %8 = load i64, ptr %m_SeekPtr8, align 8
  %add9 = add i64 %8, %7
  store i64 %add9, ptr %m_SeekPtr8, align 8
  store i32 0, ptr %retval, align 4
  br label %return

sw.bb10:                                          ; preds = %entry
  %9 = load i64, ptr %pOffset.addr, align 8
  %m_Size11 = getelementptr inbounds %"class.Assimp::ZipFile", ptr %this1, i32 0, i32 2
  %10 = load i64, ptr %m_Size11, align 8
  %cmp12 = icmp ugt i64 %9, %10
  br i1 %cmp12, label %if.then13, label %if.end14

if.then13:                                        ; preds = %sw.bb10
  store i32 -1, ptr %retval, align 4
  br label %return

if.end14:                                         ; preds = %sw.bb10
  %m_Size15 = getelementptr inbounds %"class.Assimp::ZipFile", ptr %this1, i32 0, i32 2
  %11 = load i64, ptr %m_Size15, align 8
  %12 = load i64, ptr %pOffset.addr, align 8
  %sub = sub i64 %11, %12
  %m_SeekPtr16 = getelementptr inbounds %"class.Assimp::ZipFile", ptr %this1, i32 0, i32 3
  store i64 %sub, ptr %m_SeekPtr16, align 8
  store i32 0, ptr %retval, align 4
  br label %return

sw.default:                                       ; preds = %entry
  br label %sw.epilog

sw.epilog:                                        ; preds = %sw.default
  store i32 -1, ptr %retval, align 4
  br label %return

return:                                           ; preds = %sw.epilog, %if.end14, %if.then13, %if.end7, %if.then6, %if.end, %if.then
  %13 = load i32, ptr %retval, align 4
  ret i32 %13
}