; Function Attrs: mustprogress nofree norecurse nosync nounwind willreturn memory(argmem: readwrite) uwtable
define hidden noundef i32 @_ZN6Assimp7ZipFile4SeekEm8aiOrigin(ptr nocapture noundef nonnull align 8 dereferenceable(64) %this, i64 noundef %pOffset, i32 noundef %pOrigin) unnamed_addr #15 align 2 {
entry:
  switch i32 %pOrigin, label %return [
    i32 0, label %sw.bb
    i32 1, label %sw.bb2
    i32 2, label %sw.bb10
  ]

sw.bb:                                            ; preds = %entry
  %m_Size = getelementptr inbounds i8, ptr %this, i64 40
  %0 = load i64, ptr %m_Size, align 8
  %cmp = icmp ult i64 %0, %pOffset
  br i1 %cmp, label %return, label %if.end

if.end:                                           ; preds = %sw.bb
  %m_SeekPtr = getelementptr inbounds i8, ptr %this, i64 48
  store i64 %pOffset, ptr %m_SeekPtr, align 8
  br label %return

sw.bb2:                                           ; preds = %entry
  %m_SeekPtr3 = getelementptr inbounds i8, ptr %this, i64 48
  %1 = load i64, ptr %m_SeekPtr3, align 8
  %add = add i64 %1, %pOffset
  %m_Size4 = getelementptr inbounds i8, ptr %this, i64 40
  %2 = load i64, ptr %m_Size4, align 8
  %cmp5 = icmp ugt i64 %add, %2
  br i1 %cmp5, label %return, label %if.end7

if.end7:                                          ; preds = %sw.bb2
  store i64 %add, ptr %m_SeekPtr3, align 8
  br label %return

sw.bb10:                                          ; preds = %entry
  %m_Size11 = getelementptr inbounds i8, ptr %this, i64 40
  %3 = load i64, ptr %m_Size11, align 8
  %cmp12 = icmp ult i64 %3, %pOffset
  br i1 %cmp12, label %return, label %if.end14

if.end14:                                         ; preds = %sw.bb10
  %sub = sub i64 %3, %pOffset
  %m_SeekPtr16 = getelementptr inbounds i8, ptr %this, i64 48
  store i64 %sub, ptr %m_SeekPtr16, align 8
  br label %return

return:                                           ; preds = %entry, %sw.bb10, %sw.bb2, %sw.bb, %if.end14, %if.end7, %if.end
  %retval.0 = phi i32 [ 0, %if.end14 ], [ 0, %if.end7 ], [ 0, %if.end ], [ -1, %sw.bb ], [ -1, %sw.bb2 ], [ -1, %sw.bb10 ], [ -1, %entry ]
  ret i32 %retval.0
}